0001   0000             	
0002   0000             	.ORG 0000H
0003   0000             	
0004   0000 3E 00       	MVI A,00000000B   ;EN=0 AND RS=0
0005   0002 D3 01       	OUT 01H
0006   0004 01 00 00    	LXI B,0000H
0007   0007 1E 00       	MVI E,00H
0008   0009 31 00 00    	LXI SP,0000H
0009   000C 21 00 80    	LXI H,8000H
0010   000F CD 95 03    	CALL DELAY50
0011   0012             	
0012   0012             	
0013   0012 3E 03       	MVI A,03H	;1
0014   0014 CD EA 03    	CALL TRIGGER
0015   0017 CD DE 03    	CALL DELAY4.5
0016   001A             	
0017   001A 3E 03       	MVI A,03H	;2
0018   001C CD EA 03    	CALL TRIGGER
0019   001F CD D5 03    	CALL DELAY100U
0020   0022             	
0021   0022 3E 03       	MVI A,03H	;3
0022   0024 CD EA 03    	CALL TRIGGER
0023   0027 CD DE 03    	CALL DELAY4.5
0024   002A             	
0025   002A 3E 02       	MVI A,02H	;4
0026   002C CD EA 03    	CALL TRIGGER
0027   002F             
0028   002F 3E 02       	MVI A,02H	;5 FUNCTION SET 28H
0029   0031 CD EA 03    	CALL TRIGGER
0030   0034 3E 08       	MVI A,08H
0031   0036 CD EA 03    	CALL TRIGGER
0032   0039 CD D5 03    	CALL DELAY100U
0033   003C             	
0034   003C 3E 00       	MVI A,00H	;6 DISPLAY ON 0CH
0035   003E CD EA 03    	CALL TRIGGER
0036   0041 3E 0C       	MVI A,0CH
0037   0043 CD EA 03    	CALL TRIGGER
0038   0046 CD D5 03    	CALL DELAY100U
0039   0049             
0040   0049 3E 00       	MVI A,00H	;6 DISPLAY ON 0CH
0041   004B CD EA 03    	CALL TRIGGER
0042   004E 3E 01       	MVI A,01H
0043   0050 CD EA 03    	CALL TRIGGER
0044   0053 CD DE 03    	CALL DELAY4.5
0045   0056             	
0046   0056 3E 00       	MVI A,00H	;7  CLEAR DISPLAY 01H
0047   0058 CD EA 03    	CALL TRIGGER
0048   005B 3E 06       	MVI A,06H
0049   005D CD EA 03    	CALL TRIGGER
0050   0060 CD DE 03    	CALL DELAY4.5
0051   0063             		
0052   0063 3E 08       	MVI A,08H	;9 SETTING RAM ADDRESS
0053   0065 CD EA 03    	CALL TRIGGER
0054   0068 3E 00       	MVI A,00H
0055   006A CD EA 03    	CALL TRIGGER
0056   006D CD D5 03    	CALL DELAY100U
0057   0070             	
0058   0070             	
0059   0070 CD 1B 04            CALL CLRDISP
0060   0073             	
0061   0073 3E 15       	MVI A,15H	;S
0062   0075 CD EA 03    	CALL TRIGGER
0063   0078 3E 13       	MVI A,13H
0064   007A CD EA 03    	CALL TRIGGER
0065   007D             
0066   007D 3E 14       	MVI A,14H	;I
0067   007F CD EA 03    	CALL TRIGGER
0068   0082 3E 19       	MVI A,19H
0069   0084 CD EA 03    	CALL TRIGGER
0070   0087             
0071   0087 3E 14       	MVI A,14H	;D
0072   0089 CD EA 03    	CALL TRIGGER
0073   008C 3E 14       	MVI A,14H
0074   008E CD EA 03    	CALL TRIGGER
0075   0091             
0076   0091 3E 14       	MVI A,14H	;E
0077   0093 CD EA 03    	CALL TRIGGER
0078   0096 3E 15       	MVI A,15H
0079   0098 CD EA 03    	CALL TRIGGER
0080   009B             		
0081   009B 3E 12       	MVI A,12H	;-
0082   009D CD EA 03    	CALL TRIGGER
0083   00A0 3E 1D       	MVI A,1DH
0084   00A2 CD EA 03    	CALL TRIGGER
0085   00A5             	
0086   00A5 3E 13       	MVI A,13H	;1
0087   00A7 CD EA 03    	CALL TRIGGER
0088   00AA 3E 11       	MVI A,11H
0089   00AC CD EA 03    	CALL TRIGGER
0090   00AF             	
0091   00AF CD AD 03    	CALL DELAY5012
0092   00B2 CD 1B 04    	CALL CLRDISP
0093   00B5             		
0094   00B5 1E 00       	MVI E,00H
0095   00B7 DB 00       	IN 00H	
0096   00B9 0E 08       	MVI C,08H
0097   00BB 17          AGAIN:	RAL
0098   00BC DC 00 04    	CC ONE 
0099   00BF D4 0D 04    	CNC ZERO
0100   00C2 0D          	DCR C
0101   00C3 C2 BB 00    	JNZ AGAIN
0102   00C6             	
0103   00C6 CD A1 03    	CALL DELAY501
0104   00C9 CD 1B 04    	CALL CLRDISP
0105   00CC 73          	MOV M,E
0106   00CD             	
0107   00CD 7B          	MOV A,E
0108   00CE C6 30       	ADI 30H
0109   00D0 5F          	MOV E,A
0110   00D1 E6 F0       	ANI 0F0H
0111   00D3 07          	RLC 
0112   00D4 07          	RLC
0113   00D5 07          	RLC
0114   00D6 07          	RLC
0115   00D7 F6 10       	ORI 10H
0116   00D9 CD EA 03    	CALL TRIGGER
0117   00DC 7B          	MOV A,E
0118   00DD E6 0F       	ANI 0FH
0119   00DF F6 10       	ORI 10H
0120   00E1 CD EA 03    	CALL TRIGGER
0121   00E4 CD AD 03    	CALL DELAY5012
0122   00E7 CD 1B 04    	CALL CLRDISP
0123   00EA             	
0124   00EA 23          	INX H
0125   00EB             
0126   00EB 3E 15       	MVI A,15H	;S
0127   00ED CD EA 03    	CALL TRIGGER
0128   00F0 3E 13       	MVI A,13H
0129   00F2 CD EA 03    	CALL TRIGGER
0130   00F5             
0131   00F5 3E 14       	MVI A,14H	;I
0132   00F7 CD EA 03    	CALL TRIGGER
0133   00FA 3E 19       	MVI A,19H
0134   00FC CD EA 03    	CALL TRIGGER
0135   00FF             
0136   00FF 3E 14       	MVI A,14H	;D
0137   0101 CD EA 03    	CALL TRIGGER
0138   0104 3E 14       	MVI A,14H
0139   0106 CD EA 03    	CALL TRIGGER
0140   0109             
0141   0109 3E 14       	MVI A,14H	;E
0142   010B CD EA 03    	CALL TRIGGER
0143   010E 3E 15       	MVI A,15H
0144   0110 CD EA 03    	CALL TRIGGER
0145   0113             		
0146   0113 3E 12       	MVI A,12H	;-
0147   0115 CD EA 03    	CALL TRIGGER
0148   0118 3E 1D       	MVI A,1DH
0149   011A CD EA 03    	CALL TRIGGER
0150   011D             	
0151   011D 3E 13       	MVI A,13H	;2
0152   011F CD EA 03    	CALL TRIGGER
0153   0122 3E 12       	MVI A,12H
0154   0124 CD EA 03    	CALL TRIGGER
0155   0127             	
0156   0127 CD AD 03    	CALL DELAY5012
0157   012A CD 1B 04    	CALL CLRDISP
0158   012D             
0159   012D 1E 00       	MVI E,00H
0160   012F DB 00       	IN 00H	
0161   0131 0E 08       	MVI C,08H
0162   0133 17          AGAIN1:	RAL
0163   0134 DC 00 04    	CC ONE 
0164   0137 D4 0D 04    	CNC ZERO
0165   013A 0D          	DCR C
0166   013B C2 33 01    	JNZ AGAIN1
0167   013E             	
0168   013E CD A1 03    	CALL DELAY501
0169   0141 CD 1B 04    	CALL CLRDISP
0170   0144 73          	MOV M,E
0171   0145             		
0172   0145 7B          	MOV A,E
0173   0146 C6 30       	ADI 30H
0174   0148 5F          	MOV E,A
0175   0149 E6 F0       	ANI 0F0H
0176   014B 07          	RLC 
0177   014C 07          	RLC
0178   014D 07          	RLC
0179   014E 07          	RLC
0180   014F F6 10       	ORI 10H
0181   0151 CD EA 03    	CALL TRIGGER
0182   0154 7B          	MOV A,E
0183   0155 E6 0F       	ANI 0FH
0184   0157 F6 10       	ORI 10H
0185   0159 CD EA 03    	CALL TRIGGER
0186   015C CD AD 03    	CALL DELAY5012
0187   015F CD 1B 04    	CALL CLRDISP
0188   0162             
0189   0162 3E 14       	MVI A,14H	;L
0190   0164 CD EA 03    	CALL TRIGGER
0191   0167 3E 1C       	MVI A,1CH
0192   0169 CD EA 03    	CALL TRIGGER
0193   016C             
0194   016C 3E 14       	MVI A,14H	;E
0195   016E CD EA 03    	CALL TRIGGER
0196   0171 3E 15       	MVI A,15H
0197   0173 CD EA 03    	CALL TRIGGER
0198   0176             
0199   0176 3E 14       	MVI A,14H	;N
0200   0178 CD EA 03    	CALL TRIGGER
0201   017B 3E 1E       	MVI A,1EH
0202   017D CD EA 03    	CALL TRIGGER
0203   0180             
0204   0180 3E 14       	MVI A,14H	;G
0205   0182 CD EA 03    	CALL TRIGGER
0206   0185 3E 17       	MVI A,17H
0207   0187 CD EA 03    	CALL TRIGGER
0208   018A             
0209   018A 3E 15       	MVI A,15H	;T
0210   018C CD EA 03    	CALL TRIGGER
0211   018F 3E 14       	MVI A,14H
0212   0191 CD EA 03    	CALL TRIGGER
0213   0194             
0214   0194 3E 14       	MVI A,14H	;H
0215   0196 CD EA 03    	CALL TRIGGER
0216   0199 3E 18       	MVI A,18H
0217   019B CD EA 03    	CALL TRIGGER
0218   019E             
0219   019E 3E 12       	MVI A,12H	;-
0220   01A0 CD EA 03    	CALL TRIGGER
0221   01A3 3E 1D       	MVI A,1DH
0222   01A5 CD EA 03    	CALL TRIGGER
0223   01A8             	
0224   01A8 3E 13       	MVI A,13H	;1
0225   01AA CD EA 03    	CALL TRIGGER
0226   01AD 3E 11       	MVI A,11H
0227   01AF CD EA 03    	CALL TRIGGER
0228   01B2             
0229   01B2 3E 13       	MVI A,13H	;:
0230   01B4 CD EA 03    	CALL TRIGGER
0231   01B7 3E 1A       	MVI A,1AH
0232   01B9 CD EA 03    	CALL TRIGGER
0233   01BC             	
0234   01BC 21 00 80    	LXI H,8000H
0235   01BF 7E          	MOV A,M
0236   01C0 C6 30       	ADI 30H
0237   01C2 E6 F0       	ANI 0F0H
0238   01C4 07          	RLC 
0239   01C5 07          	RLC
0240   01C6 07          	RLC
0241   01C7 07          	RLC
0242   01C8 F6 10       	ORI 10H
0243   01CA CD EA 03    	CALL TRIGGER
0244   01CD 7E          	MOV A,M
0245   01CE C6 30       	ADI 30H
0246   01D0 E6 0F       	ANI 0FH
0247   01D2 F6 10       	ORI 10H
0248   01D4 CD EA 03    	CALL TRIGGER
0249   01D7             
0250   01D7             
0251   01D7 23          	INX H
0252   01D8             	
0253   01D8 3E 0C       	MVI A,0CH
0254   01DA CD EA 03    	CALL TRIGGER
0255   01DD 3E 00       	MVI A,00H
0256   01DF CD EA 03    	CALL TRIGGER
0257   01E2             
0258   01E2 3E 14       	MVI A,14H	;L
0259   01E4 CD EA 03    	CALL TRIGGER
0260   01E7 3E 1C       	MVI A,1CH
0261   01E9 CD EA 03    	CALL TRIGGER
0262   01EC             
0263   01EC 3E 14       	MVI A,14H	;E
0264   01EE CD EA 03    	CALL TRIGGER
0265   01F1 3E 15       	MVI A,15H
0266   01F3 CD EA 03    	CALL TRIGGER
0267   01F6             
0268   01F6 3E 14       	MVI A,14H	;N
0269   01F8 CD EA 03    	CALL TRIGGER
0270   01FB 3E 1E       	MVI A,1EH
0271   01FD CD EA 03    	CALL TRIGGER
0272   0200             
0273   0200 3E 14       	MVI A,14H	;G
0274   0202 CD EA 03    	CALL TRIGGER
0275   0205 3E 17       	MVI A,17H
0276   0207 CD EA 03    	CALL TRIGGER
0277   020A             
0278   020A 3E 15       	MVI A,15H	;T
0279   020C CD EA 03    	CALL TRIGGER
0280   020F 3E 14       	MVI A,14H
0281   0211 CD EA 03    	CALL TRIGGER
0282   0214             
0283   0214 3E 14       	MVI A,14H	;H
0284   0216 CD EA 03    	CALL TRIGGER
0285   0219 3E 18       	MVI A,18H
0286   021B CD EA 03    	CALL TRIGGER
0287   021E             
0288   021E 3E 12       	MVI A,12H	;-
0289   0220 CD EA 03    	CALL TRIGGER
0290   0223 3E 1D       	MVI A,1DH
0291   0225 CD EA 03    	CALL TRIGGER
0292   0228             	
0293   0228 3E 13       	MVI A,13H	;2
0294   022A CD EA 03    	CALL TRIGGER
0295   022D 3E 12       	MVI A,12H
0296   022F CD EA 03    	CALL TRIGGER
0297   0232             
0298   0232 3E 13       	MVI A,13H	;:
0299   0234 CD EA 03    	CALL TRIGGER
0300   0237 3E 1A       	MVI A,1AH
0301   0239 CD EA 03    	CALL TRIGGER
0302   023C             
0303   023C 7E          	MOV A,M
0304   023D C6 30       	ADI 30H
0305   023F E6 F0       	ANI 0F0H
0306   0241 07          	RLC 
0307   0242 07          	RLC
0308   0243 07          	RLC
0309   0244 07          	RLC
0310   0245 F6 10       	ORI 10H
0311   0247 CD EA 03    	CALL TRIGGER
0312   024A 7E          	MOV A,M
0313   024B C6 30       	ADI 30H
0314   024D E6 0F       	ANI 0FH
0315   024F F6 10       	ORI 10H
0316   0251 CD EA 03    	CALL TRIGGER
0317   0254             
0318   0254 CD A1 03    	CALL DELAY501
0319   0257             	
0320   0257 CD 1B 04    	CALL CLRDISP
0321   025A             	
0322   025A             	
0323   025A 3E 14       	MVI A,14H	;A
0324   025C CD EA 03    	CALL TRIGGER
0325   025F 3E 11       	MVI A,11H
0326   0261 CD EA 03    	CALL TRIGGER
0327   0264             
0328   0264 3E 15       	MVI A,15H	;R
0329   0266 CD EA 03    	CALL TRIGGER
0330   0269 3E 12       	MVI A,12H
0331   026B CD EA 03    	CALL TRIGGER
0332   026E             	
0333   026E 3E 14       	MVI A,14H	;E
0334   0270 CD EA 03    	CALL TRIGGER
0335   0273 3E 15       	MVI A,15H
0336   0275 CD EA 03    	CALL TRIGGER
0337   0278             
0338   0278 3E 14       	MVI A,14H	;A
0339   027A CD EA 03    	CALL TRIGGER
0340   027D 3E 11       	MVI A,11H
0341   027F CD EA 03    	CALL TRIGGER
0342   0282             
0343   0282 3E 13       	MVI A,13H	;:
0344   0284 CD EA 03    	CALL TRIGGER
0345   0287 3E 1A       	MVI A,1AH
0346   0289 CD EA 03    	CALL TRIGGER
0347   028C             
0348   028C 21 00 80    	LXI H,8000H
0349   028F 56          	MOV D,M
0350   0290 21 01 80    	LXI H,8001H
0351   0293 5E          	MOV E,M
0352   0294             
0353   0294 7A          	MOV A,D
0354   0295 82          REPEAT:	ADD D
0355   0296 1D          	DCR E
0356   0297 C2 95 02    	JNZ REPEAT
0357   029A 92          	SUB D
0358   029B             	
0359   029B 11 00 00    	LXI D,0000H
0360   029E             ;	MVI A,00010111B
0361   029E FE 0A       BETA:	CPI 00001010B
0362   02A0 DC 91 03    	CC POST
0363   02A3 D6 0A       	SUI 00001010B
0364   02A5 FE 0A       	CPI 00001010B	
0365   02A7 1C          	INR E
0366   02A8 D2 9E 02    	JNC BETA
0367   02AB             
0368   02AB 57          	MOV D,A
0369   02AC             	
0370   02AC 7B          	MOV A,E
0371   02AD C6 30       	ADI 30H
0372   02AF E6 F0       	ANI 0F0H
0373   02B1 07          	RLC 
0374   02B2 07          	RLC
0375   02B3 07          	RLC
0376   02B4 07          	RLC
0377   02B5 F6 10       	ORI 10H
0378   02B7 CD EA 03    	CALL TRIGGER
0379   02BA 7B          	MOV A,E
0380   02BB C6 30       	ADI 30H
0381   02BD E6 0F       	ANI 0FH
0382   02BF F6 10       	ORI 10H
0383   02C1 CD EA 03    	CALL TRIGGER
0384   02C4             	
0385   02C4 7A          	MOV A,D
0386   02C5 C6 30       	ADI 30H
0387   02C7 E6 F0       	ANI 0F0H
0388   02C9 07          	RLC 
0389   02CA 07          	RLC
0390   02CB 07          	RLC
0391   02CC 07          	RLC
0392   02CD F6 10       	ORI 10H
0393   02CF CD EA 03    	CALL TRIGGER
0394   02D2 7A          	MOV A,D
0395   02D3 C6 30       	ADI 30H
0396   02D5 E6 0F       	ANI 0FH
0397   02D7 F6 10       	ORI 10H
0398   02D9 CD EA 03    	CALL TRIGGER
0399   02DC             
0400   02DC 3E 0C       	MVI A,0CH
0401   02DE CD EA 03    	CALL TRIGGER
0402   02E1 3E 00       	MVI A,00H
0403   02E3 CD EA 03    	CALL TRIGGER
0404   02E6             
0405   02E6 3E 13       	MVI A,13H	;1
0406   02E8 CD EA 03    	CALL TRIGGER
0407   02EB 3E 11       	MVI A,11H
0408   02ED CD EA 03    	CALL TRIGGER
0409   02F0             	
0410   02F0 3E 12       	MVI A,12H	;space
0411   02F2 CD EA 03    	CALL TRIGGER
0412   02F5 3E 10       	MVI A,10H
0413   02F7 CD EA 03    	CALL TRIGGER
0414   02FA             
0415   02FA 3E 17       	MVI A,17H	;u
0416   02FC CD EA 03    	CALL TRIGGER
0417   02FF 3E 15       	MVI A,15H
0418   0301 CD EA 03    	CALL TRIGGER
0419   0304             	
0420   0304 3E 16       	MVI A,16H	;n
0421   0306 CD EA 03    	CALL TRIGGER
0422   0309 3E 1E       	MVI A,1EH
0423   030B CD EA 03    	CALL TRIGGER
0424   030E             
0425   030E 3E 16       	MVI A,16H	;i
0426   0310 CD EA 03    	CALL TRIGGER
0427   0313 3E 19       	MVI A,19H
0428   0315 CD EA 03    	CALL TRIGGER
0429   0318             
0430   0318 3E 17       	MVI A,17H	;t
0431   031A CD EA 03    	CALL TRIGGER
0432   031D 3E 14       	MVI A,14H
0433   031F CD EA 03    	CALL TRIGGER
0434   0322             	
0435   0322 3E 13       	MVI A,13H	;=
0436   0324 CD EA 03    	CALL TRIGGER
0437   0327 3E 1D       	MVI A,1DH
0438   0329 CD EA 03    	CALL TRIGGER
0439   032C             
0440   032C 3E 13       	MVI A,13H	;0
0441   032E CD EA 03    	CALL TRIGGER
0442   0331 3E 10       	MVI A,10H
0443   0333 CD EA 03    	CALL TRIGGER
0444   0336             
0445   0336 3E 12       	MVI A,12H	;.
0446   0338 CD EA 03    	CALL TRIGGER
0447   033B 3E 1E       	MVI A,1EH
0448   033D CD EA 03    	CALL TRIGGER
0449   0340             
0450   0340 3E 13       	MVI A,13H	;4
0451   0342 CD EA 03    	CALL TRIGGER
0452   0345 3E 14       	MVI A,14H
0453   0347 CD EA 03    	CALL TRIGGER
0454   034A             
0455   034A 3E 13       	MVI A,13H	;9
0456   034C CD EA 03    	CALL TRIGGER
0457   034F 3E 19       	MVI A,19H
0458   0351 CD EA 03    	CALL TRIGGER
0459   0354             
0460   0354 3E 17       	MVI A,17H	;s
0461   0356 CD EA 03    	CALL TRIGGER
0462   0359 3E 13       	MVI A,13H
0463   035B CD EA 03    	CALL TRIGGER
0464   035E             
0465   035E 3E 17       	MVI A,17H	;q
0466   0360 CD EA 03    	CALL TRIGGER
0467   0363 3E 11       	MVI A,11H
0468   0365 CD EA 03    	CALL TRIGGER
0469   0368             
0470   0368 3E 12       	MVI A,12H	;.
0471   036A CD EA 03    	CALL TRIGGER
0472   036D 3E 1E       	MVI A,1EH
0473   036F CD EA 03    	CALL TRIGGER
0474   0372             
0475   0372 3E 16       	MVI A,16H	;i
0476   0374 CD EA 03    	CALL TRIGGER
0477   0377 3E 19       	MVI A,19H
0478   0379 CD EA 03    	CALL TRIGGER
0479   037C             
0480   037C 3E 16       	MVI A,16H	;n
0481   037E CD EA 03    	CALL TRIGGER
0482   0381 3E 1E       	MVI A,1EH
0483   0383 CD EA 03    	CALL TRIGGER
0484   0386             
0485   0386 3E 12       	MVI A,12H	;.
0486   0388 CD EA 03    	CALL TRIGGER
0487   038B 3E 1E       	MVI A,1EH
0488   038D CD EA 03    	CALL TRIGGER
0489   0390             
0490   0390 76          	HLT
0491   0391             
0492   0391 C6 0A       POST:	ADI 00001010B
0493   0393 1D          	DCR E
0494   0394 C9          	RET
0495   0395             	
0496   0395 C5          DELAY50:	PUSH B
0497   0396 01 40 10    		LXI B,1040H
0498   0399 0B          LOOP1:		DCX B
0499   039A 79          		MOV A,C
0500   039B B0          		ORA B
0501   039C C2 99 03    		JNZ LOOP1
0502   039F C1          		POP B	
0503   03A0 C9          		RET
0504   03A1             
0505   03A1 C5          DELAY501:	PUSH B
0506   03A2 01 FF FF    		LXI B,0FFFFH
0507   03A5 0B          LOOP11:		DCX B
0508   03A6 79          		MOV A,C
0509   03A7 B0          		ORA B
0510   03A8 C2 A5 03    		JNZ LOOP11
0511   03AB C1          		POP B	
0512   03AC C9          		RET
0513   03AD             
0514   03AD C5          DELAY5012:	PUSH B
0515   03AE D5          		PUSH D
0516   03AF 1E 03       		MVI E,03H
0517   03B1 01 FF FF    LOOP02:		LXI B,0FFFFH
0518   03B4 0B          LOOP00:		DCX B
0519   03B5 79          		MOV A,C
0520   03B6 B0          		ORA B
0521   03B7 C2 B4 03    		JNZ LOOP00
0522   03BA 1D          		DCR E 
0523   03BB C2 B1 03    		JNZ LOOP02
0524   03BE D1          		POP D
0525   03BF C1          		POP B
0526   03C0 C9          		RET
0527   03C1             
0528   03C1             		
0529   03C1 C5          DELAY5011:	PUSH B
0530   03C2 D5          		PUSH D
0531   03C3 1E 05       		MVI E,05H
0532   03C5 01 FF FF    LOOP01:		LXI B,0FFFFH
0533   03C8 0B          LOOP0:		DCX B
0534   03C9 79          		MOV A,C
0535   03CA B0          		ORA B
0536   03CB C2 C8 03    		JNZ LOOP0
0537   03CE 1D          		DCR E 
0538   03CF C2 C5 03    		JNZ LOOP01
0539   03D2 D1          		POP D
0540   03D3 C1          		POP B
0541   03D4 C9          		RET
0542   03D5             
0543   03D5 C5          DELAY100U:	PUSH B
0544   03D6 06 0E       		MVI B,0EH
0545   03D8 05          LOOP3:		DCR B
0546   03D9 C2 D8 03    		JNZ LOOP3
0547   03DC C1          		POP B
0548   03DD C9          		RET
0549   03DE             		
0550   03DE C5          DELAY4.5:	PUSH B
0551   03DF 01 A0 01    		LXI B,01A0H
0552   03E2 0B          LOOP2:		DCX B
0553   03E3 79          		MOV A,C
0554   03E4 B0          		ORA B
0555   03E5 C2 E2 03    		JNZ LOOP2
0556   03E8 C1          		POP B
0557   03E9 C9          		RET
0558   03EA             	
0559   03EA E6 DF       TRIGGER:  	ANI 11011111B  ;EN=0
0560   03EC D3 01       		OUT 01H
0561   03EE CD D5 03    		CALL DELAY100U
0562   03F1 F6 20       		ORI 00100000B;EN=1
0563   03F3 D3 01       		OUT 01H
0564   03F5 CD D5 03    		CALL DELAY100U
0565   03F8 E6 DF       		ANI 11011111B ; EN=0
0566   03FA D3 01       		OUT 01H
0567   03FC CD D5 03    		CALL DELAY100U
0568   03FF C9          		RET
0569   0400             
0570   0400 F5          ONE:		PUSH PSW
0571   0401 3E 13       		MVI A,13H
0572   0403 CD EA 03    		CALL TRIGGER
0573   0406 3E 11       		MVI A,11H
0574   0408 CD EA 03    		CALL TRIGGER
0575   040B F1          		POP PSW
0576   040C C9          		RET
0577   040D             	
0578   040D F5          ZERO:		PUSH PSW
0579   040E 3E 13       		MVI A,13H
0580   0410 CD EA 03    		CALL TRIGGER
0581   0413 3E 10       		MVI A,10H
0582   0415 CD EA 03    		CALL TRIGGER
0583   0418 1C          		INR E
0584   0419 F1          		POP PSW
0585   041A C9          		RET
0586   041B             
0587   041B F5          CLRDISP:	PUSH PSW
0588   041C C5          		PUSH B
0589   041D             				
0590   041D 3E 00       		MVI A,00H  	;CLEAR DISPLAY
0591   041F CD EA 03    		CALL TRIGGER
0592   0422 3E 01       		MVI A,01H
0593   0424 CD EA 03    		CALL TRIGGER
0594   0427 CD DE 03    		CALL DELAY4.5
0595   042A             		
0596   042A 3E 00       		MVI A,00H	;8  ENTRY MODE SET 06H
0597   042C CD EA 03    		CALL TRIGGER
0598   042F 3E 06       		MVI A,06H
0599   0431 CD EA 03    		CALL TRIGGER
0600   0434 CD DE 03    		CALL DELAY4.5
0601   0437             	
0602   0437 C1          		POP B
0603   0438 F1          		POP PSW
0604   0439 C9          		RET
Number of errors = 0
